target datalayout = "e-m:e-p270:32:32-p271:32:32-p272:64:64-i64:64-i128:128-f80:128-n8:16:32:64-S128"
target triple = "x86_64-pc-linux-gnu"

%struct.RelationData = type { %struct.RelFileLocator, ptr, i32, i32, i8, i8, i8, i8, i8, i32, i32, i32, i32, ptr, ptr, i32, %struct.LockInfoData, ptr, ptr, ptr, ptr, ptr, i8, ptr, ptr, ptr, ptr, ptr, ptr, i32, ptr, i8, ptr, ptr, i32, i8, i32, ptr, i8, ptr, ptr, ptr, ptr, ptr, ptr, ptr, i32, ptr, ptr, ptr, ptr, ptr, ptr, ptr, ptr, ptr, ptr, ptr, ptr, ptr, ptr, ptr, ptr, ptr, ptr, ptr, i32, i8, ptr }
%struct.RelFileLocator = type { i32, i32, i32 }
%struct.LockInfoData = type { %struct.LockRelId }
%struct.LockRelId = type { i32, i32 }
%struct.DR_transientrel = type { %struct._DestReceiver, i32, ptr, i32, i32, ptr }
%struct._DestReceiver = type { ptr, ptr, ptr, ptr, i32 }
%struct.TableAmRoutine = type { i32, ptr, ptr, ptr, ptr, ptr, ptr, ptr, ptr, ptr, ptr, ptr, ptr, ptr, ptr, ptr, ptr, ptr, ptr, ptr, ptr, ptr, ptr, ptr, ptr, ptr, ptr, ptr, ptr, ptr, ptr, ptr, ptr, ptr, ptr, ptr, ptr, ptr, ptr, ptr, ptr, ptr, ptr, ptr, ptr, ptr }

; Function Attrs: inlinehint nounwind uwtable
define internal void @table_finish_bulk_insert(ptr noundef %0, i32 noundef %1) #3 {
  %3 = alloca ptr, align 8
  %4 = alloca i32, align 4
  store ptr %0, ptr %3, align 8
  store i32 %1, ptr %4, align 4
  %5 = load ptr, ptr %3, align 8
  %6 = getelementptr inbounds nuw %struct.RelationData, ptr %5, i32 0, i32 47
  %7 = load ptr, ptr %6, align 8
  %8 = icmp ne ptr %7, null
  br i1 %8, label %9, label %24

9:                                                ; preds = %2
  %10 = load ptr, ptr %3, align 8
  %11 = getelementptr inbounds nuw %struct.RelationData, ptr %10, i32 0, i32 47
  %12 = load ptr, ptr %11, align 8
  %13 = getelementptr inbounds nuw %struct.TableAmRoutine, ptr %12, i32 0, i32 27
  %14 = load ptr, ptr %13, align 8
  %15 = icmp ne ptr %14, null
  br i1 %15, label %16, label %24

16:                                               ; preds = %9
  %17 = load ptr, ptr %3, align 8
  %18 = getelementptr inbounds nuw %struct.RelationData, ptr %17, i32 0, i32 47
  %19 = load ptr, ptr %18, align 8
  %20 = getelementptr inbounds nuw %struct.TableAmRoutine, ptr %19, i32 0, i32 27
  %21 = load ptr, ptr %20, align 8
  %22 = load ptr, ptr %3, align 8
  %23 = load i32, ptr %4, align 4
  call void %21(ptr noundef %22, i32 noundef %23)
  br label %24

24:                                               ; preds = %16, %9, %2
  ret void
}

; Function Attrs: nounwind uwtable
define internal void @transientrel_shutdown(ptr noundef %0) #0 {
  %2 = alloca ptr, align 8
  %3 = alloca ptr, align 8
  store ptr %0, ptr %2, align 8
  call void @llvm.lifetime.start.p0(i64 8, ptr %3) #10
  %4 = load ptr, ptr %2, align 8
  store ptr %4, ptr %3, align 8
  %5 = load ptr, ptr %3, align 8
  %6 = getelementptr inbounds nuw %struct.DR_transientrel, ptr %5, i32 0, i32 5
  %7 = load ptr, ptr %6, align 8
  call void @FreeBulkInsertState(ptr noundef %7)
  %8 = load ptr, ptr %3, align 8
  %9 = getelementptr inbounds nuw %struct.DR_transientrel, ptr %8, i32 0, i32 2
  %10 = load ptr, ptr %9, align 8
  %11 = load ptr, ptr %3, align 8
  %12 = getelementptr inbounds nuw %struct.DR_transientrel, ptr %11, i32 0, i32 4
  %13 = load i32, ptr %12, align 4
  call void @table_finish_bulk_insert(ptr noundef %10, i32 noundef %13)
  %14 = load ptr, ptr %3, align 8
  %15 = getelementptr inbounds nuw %struct.DR_transientrel, ptr %14, i32 0, i32 2
  %16 = load ptr, ptr %15, align 8
  call void @table_close(ptr noundef %16, i32 noundef 0)
  %17 = load ptr, ptr %3, align 8
  %18 = getelementptr inbounds nuw %struct.DR_transientrel, ptr %17, i32 0, i32 2
  store ptr null, ptr %18, align 8
  call void @llvm.lifetime.end.p0(i64 8, ptr %3) #10
  ret void
}