; Function Attrs: nounwind uwtable
define internal void @transientrel_shutdown(ptr noundef captures(none) %0) #0 {
  %2 = getelementptr inbounds nuw i8, ptr %0, i64 64
  %3 = load ptr, ptr %2, align 8
  tail call void @FreeBulkInsertState(ptr noundef %3) #8
  %4 = getelementptr inbounds nuw i8, ptr %0, i64 48
  %5 = load ptr, ptr %4, align 8
  %6 = getelementptr inbounds nuw i8, ptr %0, i64 60
  %7 = load i32, ptr %6, align 4
  %8 = getelementptr inbounds nuw i8, ptr %5, i64 320
  %9 = load ptr, ptr %8, align 8
  %.not.i = icmp eq ptr %9, null
  br i1 %.not.i, label %table_finish_bulk_insert.exit, label %10

10:                                               ; preds = %1
  %11 = getelementptr inbounds nuw i8, ptr %9, i64 216
  %12 = load ptr, ptr %11, align 8
  %.not5.i = icmp eq ptr %12, null
  br i1 %.not5.i, label %table_finish_bulk_insert.exit, label %13

13:                                               ; preds = %10
  tail call void %12(ptr noundef nonnull %5, i32 noundef %7) #8
  %.pre = load ptr, ptr %4, align 8
  br label %table_finish_bulk_insert.exit

table_finish_bulk_insert.exit:                    ; preds = %1, %10, %13
  %14 = phi ptr [ %5, %1 ], [ %5, %10 ], [ %.pre, %13 ]
  tail call void @table_close(ptr noundef %14, i32 noundef 0) #8
  store ptr null, ptr %4, align 8
  ret void
}